; Function Attrs: mustprogress uwtable
define hidden void @_ZN4cvc58internal6theory11quantifiers10EmeEvalTds4evalENS0_12NodeTemplateILb0EEERKSt6vectorINS4_ILb1EEESaIS7_EESB_(ptr dead_on_unwind noalias writable sret(%"class.cvc5::internal::NodeTemplate") align 8 %0, ptr noundef nonnull readonly align 8 captures(none) dereferenceable(24) %1, ptr noundef readonly captures(none) %2, ptr nonnull readnone align 8 captures(none) %3, ptr noundef nonnull align 8 dereferenceable(24) %4) unnamed_addr #3 align 2 personality ptr @__gxx_personality_v0 {
  %6 = alloca %"class.cvc5::internal::TypeNode", align 8
  %7 = alloca %"class.cvc5::internal::NodeTemplate", align 8
  %8 = getelementptr inbounds nuw i8, ptr %1, i64 8
  %9 = load ptr, ptr %8, align 8, !tbaa !76
  %10 = getelementptr inbounds nuw i8, ptr %1, i64 16
  %11 = load ptr, ptr %10, align 8, !tbaa !81
  store ptr %11, ptr %6, align 8, !tbaa !81
  %12 = load i64, ptr %11, align 8
  %13 = lshr i64 %12, 40
  %14 = trunc nuw nsw i64 %13 to i32
  %15 = and i32 %14, 1048575
  %16 = icmp samesign ult i32 %15, 1048574
  br i1 %16, label %17, label %22, !prof !22

17:                                               ; preds = %5
  %18 = add i64 %12, 1099511627776
  %19 = and i64 %18, 1152920405095219200
  %20 = and i64 %12, -1152920405095219201
  %21 = or disjoint i64 %19, %20
  store i64 %21, ptr %11, align 8
  br label %_ZN4cvc58internal8TypeNodeC2ERKS1_.exit

22:                                               ; preds = %5
  %23 = icmp eq i32 %15, 1048574
  br i1 %23, label %24, label %_ZN4cvc58internal8TypeNodeC2ERKS1_.exit, !prof !21

24:                                               ; preds = %22
  %25 = or i64 %12, 1152920405095219200
  store i64 %25, ptr %11, align 8
  tail call void @_ZN4cvc58internal4expr9NodeValue20markRefCountMaxedOutEv(ptr noundef nonnull align 8 dereferenceable(24) %11)
  br label %_ZN4cvc58internal8TypeNodeC2ERKS1_.exit

_ZN4cvc58internal8TypeNodeC2ERKS1_.exit:          ; preds = %17, %22, %24
  %26 = load ptr, ptr %2, align 8, !tbaa !34
  store ptr %26, ptr %7, align 8, !tbaa !9
  %27 = load i64, ptr %26, align 8
  %28 = lshr i64 %27, 40
  %29 = trunc nuw nsw i64 %28 to i32
  %30 = and i32 %29, 1048575
  %31 = icmp samesign ult i32 %30, 1048574
  br i1 %31, label %32, label %37, !prof !22

32:                                               ; preds = %_ZN4cvc58internal8TypeNodeC2ERKS1_.exit
  %33 = add i64 %27, 1099511627776
  %34 = and i64 %33, 1152920405095219200
  %35 = and i64 %27, -1152920405095219201
  %36 = or disjoint i64 %34, %35
  store i64 %36, ptr %26, align 8
  br label %_ZN4cvc58internal12NodeTemplateILb1EEC2ERKNS1_ILb0EEE.exit

37:                                               ; preds = %_ZN4cvc58internal8TypeNodeC2ERKS1_.exit
  %38 = icmp eq i32 %30, 1048574
  br i1 %38, label %39, label %_ZN4cvc58internal12NodeTemplateILb1EEC2ERKNS1_ILb0EEE.exit, !prof !21

39:                                               ; preds = %37
  %40 = or i64 %27, 1152920405095219200
  store i64 %40, ptr %26, align 8
  invoke void @_ZN4cvc58internal4expr9NodeValue20markRefCountMaxedOutEv(ptr noundef nonnull align 8 dereferenceable(24) %26)
          to label %_ZN4cvc58internal12NodeTemplateILb1EEC2ERKNS1_ILb0EEE.exit unwind label %68

_ZN4cvc58internal12NodeTemplateILb1EEC2ERKNS1_ILb0EEE.exit: ; preds = %37, %32, %39
  invoke void @_ZN4cvc58internal6theory11quantifiers11TermDbSygus15evaluateBuiltinENS0_8TypeNodeENS0_12NodeTemplateILb1EEERKSt6vectorIS6_SaIS6_EEb(ptr dead_on_unwind writable sret(%"class.cvc5::internal::NodeTemplate") align 8 %0, ptr noundef nonnull align 8 dereferenceable(920) %9, ptr noundef nonnull %6, ptr noundef nonnull %7, ptr noundef nonnull align 8 dereferenceable(24) %4, i1 noundef zeroext true)
          to label %41 unwind label %70

41:                                               ; preds = %_ZN4cvc58internal12NodeTemplateILb1EEC2ERKNS1_ILb0EEE.exit
  %42 = load ptr, ptr %7, align 8, !tbaa !9
  %43 = load i64, ptr %42, align 8
  %44 = and i64 %43, 1152920405095219200
  %.not.i.i = icmp eq i64 %44, 1152920405095219200
  br i1 %.not.i.i, label %_ZN4cvc58internal12NodeTemplateILb1EED2Ev.exit, label %45, !prof !21

45:                                               ; preds = %41
  %46 = add i64 %43, 1152920405095219200
  %47 = and i64 %46, 1152920405095219200
  %48 = and i64 %43, -1152920405095219201
  %49 = or disjoint i64 %47, %48
  store i64 %49, ptr %42, align 8
  %50 = icmp eq i64 %47, 0
  br i1 %50, label %51, label %_ZN4cvc58internal12NodeTemplateILb1EED2Ev.exit, !prof !21

51:                                               ; preds = %45
  invoke void @_ZN4cvc58internal4expr9NodeValue15markForDeletionEv(ptr noundef nonnull align 8 dereferenceable(24) %42)
          to label %_ZN4cvc58internal12NodeTemplateILb1EED2Ev.exit unwind label %52

52:                                               ; preds = %51
  %53 = landingpad { ptr, i32 }
          catch ptr null
  %54 = extractvalue { ptr, i32 } %53, 0
  call void @__clang_call_terminate(ptr %54) #21
  unreachable

_ZN4cvc58internal12NodeTemplateILb1EED2Ev.exit:   ; preds = %41, %45, %51
  %55 = load ptr, ptr %6, align 8, !tbaa !81
  %56 = load i64, ptr %55, align 8
  %57 = and i64 %56, 1152920405095219200
  %.not.i.i5 = icmp eq i64 %57, 1152920405095219200
  br i1 %.not.i.i5, label %_ZN4cvc58internal8TypeNodeD2Ev.exit, label %58, !prof !21

58:                                               ; preds = %_ZN4cvc58internal12NodeTemplateILb1EED2Ev.exit
  %59 = add i64 %56, 1152920405095219200
  %60 = and i64 %59, 1152920405095219200
  %61 = and i64 %56, -1152920405095219201
  %62 = or disjoint i64 %60, %61
  store i64 %62, ptr %55, align 8
  %63 = icmp eq i64 %60, 0
  br i1 %63, label %64, label %_ZN4cvc58internal8TypeNodeD2Ev.exit, !prof !21

64:                                               ; preds = %58
  invoke void @_ZN4cvc58internal4expr9NodeValue15markForDeletionEv(ptr noundef nonnull align 8 dereferenceable(24) %55)
          to label %_ZN4cvc58internal8TypeNodeD2Ev.exit unwind label %65

65:                                               ; preds = %64
  %66 = landingpad { ptr, i32 }
          catch ptr null
  %67 = extractvalue { ptr, i32 } %66, 0
  call void @__clang_call_terminate(ptr %67) #21
  unreachable

_ZN4cvc58internal8TypeNodeD2Ev.exit:              ; preds = %_ZN4cvc58internal12NodeTemplateILb1EED2Ev.exit, %58, %64
  ret void

68:                                               ; preds = %39
  %69 = landingpad { ptr, i32 }
          cleanup
  br label %72

70:                                               ; preds = %_ZN4cvc58internal12NodeTemplateILb1EEC2ERKNS1_ILb0EEE.exit
  %71 = landingpad { ptr, i32 }
          cleanup
  call void @_ZN4cvc58internal12NodeTemplateILb1EED2Ev(ptr noundef nonnull align 8 dereferenceable(8) %7) #19
  br label %72

72:                                               ; preds = %70, %68
  %.pn = phi { ptr, i32 } [ %71, %70 ], [ %69, %68 ]
  call void @_ZN4cvc58internal8TypeNodeD2Ev(ptr noundef nonnull align 8 dereferenceable(8) %6) #19
  resume { ptr, i32 } %.pn
}